target datalayout = "e-m:e-p270:32:32-p271:32:32-p272:64:64-i64:64-i128:128-f80:128-n8:16:32:64-S128"
target triple = "x86_64-pc-linux-gnu"

%struct.dirent = type { i64, i64, i16, i8, [256 x i8] }

; Function Attrs: inlinehint nounwind uwtable
define internal i32 @is_dot_or_dotdot(ptr noundef %0) #3 {
  %2 = alloca ptr, align 8
  store ptr %0, ptr %2, align 8, !tbaa !13
  %3 = load ptr, ptr %2, align 8, !tbaa !13
  %4 = getelementptr inbounds i8, ptr %3, i64 0
  %5 = load i8, ptr %4, align 1, !tbaa !15
  %6 = sext i8 %5 to i32
  %7 = icmp eq i32 %6, 46
  br i1 %7, label %8, label %30

8:                                                ; preds = %1
  %9 = load ptr, ptr %2, align 8, !tbaa !13
  %10 = getelementptr inbounds i8, ptr %9, i64 1
  %11 = load i8, ptr %10, align 1, !tbaa !15
  %12 = sext i8 %11 to i32
  %13 = icmp eq i32 %12, 0
  br i1 %13, label %28, label %14

14:                                               ; preds = %8
  %15 = load ptr, ptr %2, align 8, !tbaa !13
  %16 = getelementptr inbounds i8, ptr %15, i64 1
  %17 = load i8, ptr %16, align 1, !tbaa !15
  %18 = sext i8 %17 to i32
  %19 = icmp eq i32 %18, 46
  br i1 %19, label %20, label %26

20:                                               ; preds = %14
  %21 = load ptr, ptr %2, align 8, !tbaa !13
  %22 = getelementptr inbounds i8, ptr %21, i64 2
  %23 = load i8, ptr %22, align 1, !tbaa !15
  %24 = sext i8 %23 to i32
  %25 = icmp eq i32 %24, 0
  br label %26

26:                                               ; preds = %20, %14
  %27 = phi i1 [ false, %14 ], [ %25, %20 ]
  br label %28

28:                                               ; preds = %26, %8
  %29 = phi i1 [ true, %8 ], [ %27, %26 ]
  br label %30

30:                                               ; preds = %28, %1
  %31 = phi i1 [ false, %1 ], [ %29, %28 ]
  %32 = zext i1 %31 to i32
  ret i32 %32
}

; Function Attrs: nounwind uwtable
define dso_local ptr @readdir_skip_dot_and_dotdot(ptr noundef %0) #0 {
  %2 = alloca ptr, align 8
  %3 = alloca ptr, align 8
  store ptr %0, ptr %2, align 8, !tbaa !4
  call void @llvm.lifetime.start.p0(i64 8, ptr %3) #12
  br label %4

4:                                                ; preds = %15, %1
  %5 = load ptr, ptr %2, align 8, !tbaa !4
  %6 = call ptr @readdir64(ptr noundef %5)
  store ptr %6, ptr %3, align 8, !tbaa !9
  %7 = icmp ne ptr %6, null
  br i1 %7, label %8, label %16

8:                                                ; preds = %4
  %9 = load ptr, ptr %3, align 8, !tbaa !9
  %10 = getelementptr inbounds nuw %struct.dirent, ptr %9, i32 0, i32 4
  %11 = getelementptr inbounds [256 x i8], ptr %10, i64 0, i64 0
  %12 = call i32 @is_dot_or_dotdot(ptr noundef %11)
  %13 = icmp ne i32 %12, 0
  br i1 %13, label %15, label %14

14:                                               ; preds = %8
  br label %16

15:                                               ; preds = %8
  br label %4, !llvm.loop !11

16:                                               ; preds = %14, %4
  %17 = load ptr, ptr %3, align 8, !tbaa !9
  call void @llvm.lifetime.end.p0(i64 8, ptr %3) #12
  ret ptr %17
}

; Function Attrs: nounwind uwtable
define dso_local i32 @is_empty_dir(ptr noundef %0) #0 {
  %2 = alloca i32, align 4
  %3 = alloca ptr, align 8
  %4 = alloca ptr, align 8
  %5 = alloca ptr, align 8
  %6 = alloca i32, align 4
  %7 = alloca i32, align 4
  store ptr %0, ptr %3, align 8, !tbaa !13
  call void @llvm.lifetime.start.p0(i64 8, ptr %4) #12
  %8 = load ptr, ptr %3, align 8, !tbaa !13
  %9 = call ptr @opendir(ptr noundef %8)
  store ptr %9, ptr %4, align 8, !tbaa !4
  call void @llvm.lifetime.start.p0(i64 8, ptr %5) #12
  call void @llvm.lifetime.start.p0(i64 4, ptr %6) #12
  store i32 1, ptr %6, align 4, !tbaa !16
  %10 = load ptr, ptr %4, align 8, !tbaa !4
  %11 = icmp ne ptr %10, null
  br i1 %11, label %13, label %12

12:                                               ; preds = %1
  store i32 0, ptr %2, align 4
  store i32 1, ptr %7, align 4
  br label %23

13:                                               ; preds = %1
  %14 = load ptr, ptr %4, align 8, !tbaa !4
  %15 = call ptr @readdir_skip_dot_and_dotdot(ptr noundef %14)
  store ptr %15, ptr %5, align 8, !tbaa !9
  %16 = load ptr, ptr %5, align 8, !tbaa !9
  %17 = icmp ne ptr %16, null
  br i1 %17, label %18, label %19

18:                                               ; preds = %13
  store i32 0, ptr %6, align 4, !tbaa !16
  br label %19

19:                                               ; preds = %18, %13
  %20 = load ptr, ptr %4, align 8, !tbaa !4
  %21 = call i32 @closedir(ptr noundef %20)
  %22 = load i32, ptr %6, align 4, !tbaa !16
  store i32 %22, ptr %2, align 4
  store i32 1, ptr %7, align 4
  br label %23

23:                                               ; preds = %19, %12
  call void @llvm.lifetime.end.p0(i64 4, ptr %6) #12
  call void @llvm.lifetime.end.p0(i64 8, ptr %5) #12
  call void @llvm.lifetime.end.p0(i64 8, ptr %4) #12
  %24 = load i32, ptr %2, align 4
  ret i32 %24
}