; Function Attrs: nounwind uwtable
define dso_local range(i32 0, 2) i32 @is_empty_dir(ptr noundef readonly captures(none) %0) local_unnamed_addr #0 {
  %2 = tail call ptr @opendir(ptr noundef %0)
  %.not = icmp eq ptr %2, null
  br i1 %.not, label %16, label %3

3:                                                ; preds = %1
  %4 = tail call ptr @readdir64(ptr noundef nonnull %2) #27
  %.not5.i = icmp eq ptr %4, null
  br i1 %.not5.i, label %readdir_skip_dot_and_dotdot.exit, label %.lr.ph.i

.lr.ph.i:                                         ; preds = %3, %.critedge.backedge.i
  %5 = phi ptr [ %14, %.critedge.backedge.i ], [ %4, %3 ]
  %6 = getelementptr inbounds nuw i8, ptr %5, i64 19
  %7 = load i8, ptr %6, align 1, !tbaa !4
  %8 = icmp eq i8 %7, 46
  br i1 %8, label %9, label %readdir_skip_dot_and_dotdot.exit

9:                                                ; preds = %.lr.ph.i
  %10 = getelementptr inbounds nuw i8, ptr %5, i64 20
  %11 = load i8, ptr %10, align 1, !tbaa !4
  switch i8 %11, label %readdir_skip_dot_and_dotdot.exit [
    i8 0, label %.critedge.backedge.i
    i8 46, label %is_dot_or_dotdot.exit.i
  ]

is_dot_or_dotdot.exit.i:                          ; preds = %9
  %12 = getelementptr inbounds nuw i8, ptr %5, i64 21
  %13 = load i8, ptr %12, align 1, !tbaa !4
  %.not10.i = icmp eq i8 %13, 0
  br i1 %.not10.i, label %.critedge.backedge.i, label %readdir_skip_dot_and_dotdot.exit

.critedge.backedge.i:                             ; preds = %is_dot_or_dotdot.exit.i, %9
  %14 = tail call ptr @readdir64(ptr noundef nonnull %2) #27
  %.not.i = icmp eq ptr %14, null
  br i1 %.not.i, label %readdir_skip_dot_and_dotdot.exit, label %.lr.ph.i, !llvm.loop !7

readdir_skip_dot_and_dotdot.exit:                 ; preds = %.lr.ph.i, %9, %is_dot_or_dotdot.exit.i, %.critedge.backedge.i, %3
  %.lcssa.i = phi i32 [ 1, %3 ], [ 1, %.critedge.backedge.i ], [ 0, %is_dot_or_dotdot.exit.i ], [ 0, %.lr.ph.i ], [ 0, %9 ]
  %15 = tail call i32 @closedir(ptr noundef nonnull %2)
  br label %16

16:                                               ; preds = %1, %readdir_skip_dot_and_dotdot.exit
  %.06 = phi i32 [ %.lcssa.i, %readdir_skip_dot_and_dotdot.exit ], [ 0, %1 ]
  ret i32 %.06
}